; Function Attrs: mustprogress uwtable
define dso_local noundef zeroext i1 @_ZN17cmQtAutoGenerator5InfoT4ReadERSi(ptr noundef nonnull align 8 dereferenceable(48) %0, ptr noundef nonnull align 8 dereferenceable(16) %1) local_unnamed_addr #3 align 2 personality ptr @__gxx_personality_v0 {
  %3 = invoke noundef nonnull align 8 dereferenceable(16) ptr @_ZN4JsonrsERSiRNS_5ValueE(ptr noundef nonnull align 8 dereferenceable(16) %1, ptr noundef nonnull align 8 dereferenceable(40) %0)
          to label %8 unwind label %4

4:                                                ; preds = %2
  %5 = landingpad { ptr, i32 }
          catch ptr null
  %6 = extractvalue { ptr, i32 } %5, 0
  %7 = tail call ptr @__cxa_begin_catch(ptr %6) #21
  tail call void @__cxa_end_catch()
  br label %8

8:                                                ; preds = %2, %4
  %.0 = phi i1 [ false, %4 ], [ true, %2 ]
  ret i1 %.0
}